
m7.o:     file format elf32-littlearm


Disassembly of section .text:

00000000 <main>:
int main() {
   0:	b580      	push	{r7, lr}
   2:	b086      	sub	sp, #24
   4:	af00      	add	r7, sp, #0
   6:	4a1a      	ldr	r2, [pc, #104]	@ (70 <main+0x70>)
   8:	447a      	add	r2, pc
   a:	4b1a      	ldr	r3, [pc, #104]	@ (74 <main+0x74>)
   c:	58d3      	ldr	r3, [r2, r3]
   e:	681b      	ldr	r3, [r3, #0]
  10:	617b      	str	r3, [r7, #20]
  12:	f04f 0300 	mov.w	r3, #0
  char a[] = {1, 2, 3, 4, 5};
  16:	4a18      	ldr	r2, [pc, #96]	@ (78 <main+0x78>)
  18:	447a      	add	r2, pc
  1a:	1d3b      	adds	r3, r7, #4
  1c:	e892 0003 	ldmia.w	r2, {r0, r1}
  20:	6018      	str	r0, [r3, #0]
  22:	3304      	adds	r3, #4
  24:	7019      	strb	r1, [r3, #0]
  char b[5];

  for (int i = 0; i < 5; i++)
  26:	2300      	movs	r3, #0
  28:	603b      	str	r3, [r7, #0]
  2a:	e00c      	b.n	46 <main+0x46>
    b[i] = a[i];
  2c:	1d3a      	adds	r2, r7, #4
  2e:	683b      	ldr	r3, [r7, #0]
  30:	4413      	add	r3, r2
  32:	7819      	ldrb	r1, [r3, #0]
  34:	f107 020c 	add.w	r2, r7, #12
  38:	683b      	ldr	r3, [r7, #0]
  3a:	4413      	add	r3, r2
  3c:	460a      	mov	r2, r1
  3e:	701a      	strb	r2, [r3, #0]
  for (int i = 0; i < 5; i++)
  40:	683b      	ldr	r3, [r7, #0]
  42:	3301      	adds	r3, #1
  44:	603b      	str	r3, [r7, #0]
  46:	683b      	ldr	r3, [r7, #0]
  48:	2b04      	cmp	r3, #4
  4a:	ddef      	ble.n	2c <main+0x2c>
  4c:	2300      	movs	r3, #0
int main() {
  4e:	490b      	ldr	r1, [pc, #44]	@ (7c <main+0x7c>)
  50:	4479      	add	r1, pc
}
  52:	4a08      	ldr	r2, [pc, #32]	@ (74 <main+0x74>)
  54:	588a      	ldr	r2, [r1, r2]
  56:	6811      	ldr	r1, [r2, #0]
  58:	697a      	ldr	r2, [r7, #20]
  5a:	4051      	eors	r1, r2
  5c:	f04f 0200 	mov.w	r2, #0
  60:	d001      	beq.n	66 <main+0x66>
  62:	f7ff fffe 	bl	0 <__stack_chk_fail>
  66:	4618      	mov	r0, r3
  68:	3718      	adds	r7, #24
  6a:	46bd      	mov	sp, r7
  6c:	bd80      	pop	{r7, pc}
  6e:	bf00      	nop
  70:	00000064 	.word	0x00000064
  74:	00000000 	.word	0x00000000
  78:	0000005c 	.word	0x0000005c
  7c:	00000028 	.word	0x00000028
